; Function Attrs: mustprogress nofree norecurse nosync nounwind willreturn memory(readwrite, inaccessiblemem: none) uwtable
define hidden void @_ZN5zxing12BinaryBitmapC2ENS_3RefINS_9BinarizerEEE(ptr noundef nonnull writeonly align 8 captures(none) dereferenceable(32) initializes((0, 12), (16, 32)) %0, ptr noundef readonly captures(none) %1) unnamed_addr #0 align 2 personality ptr @__gxx_personality_v0 {
  %3 = getelementptr inbounds nuw i8, ptr %0, i64 8
  store i32 0, ptr %3, align 8, !tbaa !3
  store ptr getelementptr inbounds nuw inrange(-16, 16) (i8, ptr @_ZTVN5zxing12BinaryBitmapE, i64 16), ptr %0, align 8, !tbaa !8
  %4 = getelementptr inbounds nuw i8, ptr %0, i64 16
  store ptr null, ptr %4, align 8, !tbaa !10
  %5 = load ptr, ptr %1, align 8, !tbaa !10
  %.not.i.i = icmp eq ptr %5, null
  br i1 %.not.i.i, label %10, label %6

6:                                                ; preds = %2
  %7 = getelementptr inbounds nuw i8, ptr %5, i64 8
  %8 = load i32, ptr %7, align 8, !tbaa !3
  %9 = add i32 %8, 1
  store i32 %9, ptr %7, align 8, !tbaa !3
  br label %10

10:                                               ; preds = %2, %6
  store ptr %5, ptr %4, align 8, !tbaa !10
  %11 = getelementptr inbounds nuw i8, ptr %0, i64 24
  store ptr null, ptr %11, align 8, !tbaa !14
  ret void
}